; ModuleID = '39/1124.c'
source_filename = "39/1124.c"
target datalayout = "e-m:e-p270:32:32-p271:32:32-p272:64:64-i64:64-f80:128-n8:16:32:64-S128"
target triple = "x86_64-pc-linux-gnu"

@.str = private unnamed_addr constant [3 x i8] c"%d\00", align 1
@.str.1 = private unnamed_addr constant [17 x i8] c"%s%d%d%c%c%c%c%d\00", align 1
@.str.2 = private unnamed_addr constant [10 x i8] c"%s\0A%d\0A%d\0A\00", align 1

; Function Attrs: noinline nounwind uwtable
define dso_local i32 @main() #0 {
  %1 = alloca i32, align 4
  %2 = alloca [200 x i32], align 16
  %3 = alloca i32, align 4
  %4 = alloca [200 x [20 x i32]], align 16
  %5 = alloca [200 x i32], align 16
  %6 = alloca [200 x i32], align 16
  %7 = alloca i32, align 4
  %8 = alloca [200 x i32], align 16
  %9 = alloca i32, align 4
  %10 = alloca i32, align 4
  %11 = alloca i32, align 4
  %12 = alloca i32, align 4
  %13 = alloca [200 x i8], align 16
  %14 = alloca [200 x i8], align 16
  %15 = alloca i8, align 1
  %16 = alloca i8, align 1
  store i32 0, i32* %1, align 4
  store i32 0, i32* %9, align 4
  store i32 0, i32* %11, align 4
  store i32 0, i32* %12, align 4
  %17 = call i32 (i8*, ...) @__isoc99_scanf(i8* getelementptr inbounds ([3 x i8], [3 x i8]* @.str, i64 0, i64 0), i32* %3)
  store i32 0, i32* %7, align 4
  br label %18

18:                                               ; preds = %43, %0
  %19 = load i32, i32* %7, align 4
  %20 = load i32, i32* %3, align 4
  %21 = icmp slt i32 %19, %20
  br i1 %21, label %22, label %46

22:                                               ; preds = %18
  %23 = load i32, i32* %7, align 4
  %24 = sext i32 %23 to i64
  %25 = getelementptr inbounds [200 x [20 x i32]], [200 x [20 x i32]]* %4, i64 0, i64 %24
  %26 = getelementptr inbounds [20 x i32], [20 x i32]* %25, i64 0, i64 0
  %27 = load i32, i32* %7, align 4
  %28 = sext i32 %27 to i64
  %29 = getelementptr inbounds [200 x i32], [200 x i32]* %2, i64 0, i64 %28
  %30 = load i32, i32* %7, align 4
  %31 = sext i32 %30 to i64
  %32 = getelementptr inbounds [200 x i32], [200 x i32]* %5, i64 0, i64 %31
  %33 = load i32, i32* %7, align 4
  %34 = sext i32 %33 to i64
  %35 = getelementptr inbounds [200 x i8], [200 x i8]* %14, i64 0, i64 %34
  %36 = load i32, i32* %7, align 4
  %37 = sext i32 %36 to i64
  %38 = getelementptr inbounds [200 x i8], [200 x i8]* %13, i64 0, i64 %37
  %39 = load i32, i32* %7, align 4
  %40 = sext i32 %39 to i64
  %41 = getelementptr inbounds [200 x i32], [200 x i32]* %6, i64 0, i64 %40
  %42 = call i32 (i8*, ...) @__isoc99_scanf(i8* getelementptr inbounds ([17 x i8], [17 x i8]* @.str.1, i64 0, i64 0), i32* %26, i32* %29, i32* %32, i8* %15, i8* %35, i8* %16, i8* %38, i32* %41)
  br label %43

43:                                               ; preds = %22
  %44 = load i32, i32* %7, align 4
  %45 = add nsw i32 %44, 1
  store i32 %45, i32* %7, align 4
  br label %18

46:                                               ; preds = %18
  store i32 0, i32* %7, align 4
  br label %47

47:                                               ; preds = %141, %46
  %48 = load i32, i32* %7, align 4
  %49 = load i32, i32* %3, align 4
  %50 = icmp slt i32 %48, %49
  br i1 %50, label %51, label %144

51:                                               ; preds = %47
  %52 = load i32, i32* %7, align 4
  %53 = sext i32 %52 to i64
  %54 = getelementptr inbounds [200 x i32], [200 x i32]* %8, i64 0, i64 %53
  store i32 0, i32* %54, align 4
  %55 = load i32, i32* %7, align 4
  %56 = sext i32 %55 to i64
  %57 = getelementptr inbounds [200 x i32], [200 x i32]* %2, i64 0, i64 %56
  %58 = load i32, i32* %57, align 4
  %59 = icmp sgt i32 %58, 80
  br i1 %59, label %60, label %72

60:                                               ; preds = %51
  %61 = load i32, i32* %7, align 4
  %62 = sext i32 %61 to i64
  %63 = getelementptr inbounds [200 x i32], [200 x i32]* %6, i64 0, i64 %62
  %64 = load i32, i32* %63, align 4
  %65 = icmp sgt i32 %64, 0
  br i1 %65, label %66, label %72

66:                                               ; preds = %60
  %67 = load i32, i32* %7, align 4
  %68 = sext i32 %67 to i64
  %69 = getelementptr inbounds [200 x i32], [200 x i32]* %8, i64 0, i64 %68
  %70 = load i32, i32* %69, align 4
  %71 = add nsw i32 %70, 8000
  store i32 %71, i32* %69, align 4
  br label %72

72:                                               ; preds = %66, %60, %51
  %73 = load i32, i32* %7, align 4
  %74 = sext i32 %73 to i64
  %75 = getelementptr inbounds [200 x i32], [200 x i32]* %2, i64 0, i64 %74
  %76 = load i32, i32* %75, align 4
  %77 = icmp sgt i32 %76, 85
  br i1 %77, label %78, label %90

78:                                               ; preds = %72
  %79 = load i32, i32* %7, align 4
  %80 = sext i32 %79 to i64
  %81 = getelementptr inbounds [200 x i32], [200 x i32]* %5, i64 0, i64 %80
  %82 = load i32, i32* %81, align 4
  %83 = icmp sgt i32 %82, 80
  br i1 %83, label %84, label %90

84:                                               ; preds = %78
  %85 = load i32, i32* %7, align 4
  %86 = sext i32 %85 to i64
  %87 = getelementptr inbounds [200 x i32], [200 x i32]* %8, i64 0, i64 %86
  %88 = load i32, i32* %87, align 4
  %89 = add nsw i32 %88, 4000
  store i32 %89, i32* %87, align 4
  br label %90

90:                                               ; preds = %84, %78, %72
  %91 = load i32, i32* %7, align 4
  %92 = sext i32 %91 to i64
  %93 = getelementptr inbounds [200 x i32], [200 x i32]* %2, i64 0, i64 %92
  %94 = load i32, i32* %93, align 4
  %95 = icmp sgt i32 %94, 90
  br i1 %95, label %96, label %102

96:                                               ; preds = %90
  %97 = load i32, i32* %7, align 4
  %98 = sext i32 %97 to i64
  %99 = getelementptr inbounds [200 x i32], [200 x i32]* %8, i64 0, i64 %98
  %100 = load i32, i32* %99, align 4
  %101 = add nsw i32 %100, 2000
  store i32 %101, i32* %99, align 4
  br label %102

102:                                              ; preds = %96, %90
  %103 = load i32, i32* %7, align 4
  %104 = sext i32 %103 to i64
  %105 = getelementptr inbounds [200 x i32], [200 x i32]* %2, i64 0, i64 %104
  %106 = load i32, i32* %105, align 4
  %107 = icmp sgt i32 %106, 85
  br i1 %107, label %108, label %121

108:                                              ; preds = %102
  %109 = load i32, i32* %7, align 4
  %110 = sext i32 %109 to i64
  %111 = getelementptr inbounds [200 x i8], [200 x i8]* %13, i64 0, i64 %110
  %112 = load i8, i8* %111, align 1
  %113 = sext i8 %112 to i32
  %114 = icmp eq i32 %113, 89
  br i1 %114, label %115, label %121

115:                                              ; preds = %108
  %116 = load i32, i32* %7, align 4
  %117 = sext i32 %116 to i64
  %118 = getelementptr inbounds [200 x i32], [200 x i32]* %8, i64 0, i64 %117
  %119 = load i32, i32* %118, align 4
  %120 = add nsw i32 %119, 1000
  store i32 %120, i32* %118, align 4
  br label %121

121:                                              ; preds = %115, %108, %102
  %122 = load i32, i32* %7, align 4
  %123 = sext i32 %122 to i64
  %124 = getelementptr inbounds [200 x i32], [200 x i32]* %5, i64 0, i64 %123
  %125 = load i32, i32* %124, align 4
  %126 = icmp sgt i32 %125, 80
  br i1 %126, label %127, label %140

127:                                              ; preds = %121
  %128 = load i32, i32* %7, align 4
  %129 = sext i32 %128 to i64
  %130 = getelementptr inbounds [200 x i8], [200 x i8]* %14, i64 0, i64 %129
  %131 = load i8, i8* %130, align 1
  %132 = sext i8 %131 to i32
  %133 = icmp eq i32 %132, 89
  br i1 %133, label %134, label %140

134:                                              ; preds = %127
  %135 = load i32, i32* %7, align 4
  %136 = sext i32 %135 to i64
  %137 = getelementptr inbounds [200 x i32], [200 x i32]* %8, i64 0, i64 %136
  %138 = load i32, i32* %137, align 4
  %139 = add nsw i32 %138, 850
  store i32 %139, i32* %137, align 4
  br label %140

140:                                              ; preds = %134, %127, %121
  br label %141

141:                                              ; preds = %140
  %142 = load i32, i32* %7, align 4
  %143 = add nsw i32 %142, 1
  store i32 %143, i32* %7, align 4
  br label %47

144:                                              ; preds = %47
  store i32 0, i32* %7, align 4
  br label %145

145:                                              ; preds = %169, %144
  %146 = load i32, i32* %7, align 4
  %147 = load i32, i32* %3, align 4
  %148 = icmp slt i32 %146, %147
  br i1 %148, label %149, label %172

149:                                              ; preds = %145
  %150 = load i32, i32* %7, align 4
  %151 = sext i32 %150 to i64
  %152 = getelementptr inbounds [200 x i32], [200 x i32]* %8, i64 0, i64 %151
  %153 = load i32, i32* %152, align 4
  %154 = load i32, i32* %12, align 4
  %155 = add nsw i32 %154, %153
  store i32 %155, i32* %12, align 4
  %156 = load i32, i32* %7, align 4
  %157 = sext i32 %156 to i64
  %158 = getelementptr inbounds [200 x i32], [200 x i32]* %8, i64 0, i64 %157
  %159 = load i32, i32* %158, align 4
  %160 = load i32, i32* %9, align 4
  %161 = icmp sgt i32 %159, %160
  br i1 %161, label %162, label %168

162:                                              ; preds = %149
  %163 = load i32, i32* %7, align 4
  %164 = sext i32 %163 to i64
  %165 = getelementptr inbounds [200 x i32], [200 x i32]* %8, i64 0, i64 %164
  %166 = load i32, i32* %165, align 4
  store i32 %166, i32* %9, align 4
  %167 = load i32, i32* %7, align 4
  store i32 %167, i32* %10, align 4
  br label %168

168:                                              ; preds = %162, %149
  br label %169

169:                                              ; preds = %168
  %170 = load i32, i32* %7, align 4
  %171 = add nsw i32 %170, 1
  store i32 %171, i32* %7, align 4
  br label %145

172:                                              ; preds = %145
  %173 = load i32, i32* %10, align 4
  %174 = sext i32 %173 to i64
  %175 = getelementptr inbounds [200 x [20 x i32]], [200 x [20 x i32]]* %4, i64 0, i64 %174
  %176 = getelementptr inbounds [20 x i32], [20 x i32]* %175, i64 0, i64 0
  %177 = load i32, i32* %9, align 4
  %178 = load i32, i32* %12, align 4
  %179 = call i32 (i8*, ...) @printf(i8* getelementptr inbounds ([10 x i8], [10 x i8]* @.str.2, i64 0, i64 0), i32* %176, i32 %177, i32 %178)
  ret i32 0
}

declare dso_local i32 @__isoc99_scanf(i8*, ...) #1

declare dso_local i32 @printf(i8*, ...) #1


!llvm.module.flags = !{!0}
!llvm.ident = !{!1}

!0 = !{i32 1, !"wchar_size", i32 4}
!1 = !{!"clang version 10.0.0-4ubuntu1 "}
